; Function Attrs: mustprogress uwtable
define void @_ZNK7rocksdb32SstPartitionerFixedPrefixFactory17CreatePartitionerERKNS_14SstPartitioner7ContextE(ptr noalias nocapture writeonly sret(%"class.std::unique_ptr") align 8 %agg.result, ptr nocapture noundef nonnull readonly align 8 dereferenceable(40) %this, ptr nocapture nonnull readnone align 8 %0) unnamed_addr #3 align 2 personality ptr @__gxx_personality_v0 {
entry:
  %call = tail call noalias noundef nonnull dereferenceable(16) ptr @_Znwm(i64 noundef 16) #23
  %len_ = getelementptr inbounds i8, ptr %this, i64 32
  %1 = load i64, ptr %len_, align 8
  store ptr getelementptr inbounds ({ [7 x ptr] }, ptr @_ZTVN7rocksdb25SstPartitionerFixedPrefixE, i64 0, i32 0, i64 2), ptr %call, align 8
  %len_.i = getelementptr inbounds i8, ptr %call, i64 8
  store i64 %1, ptr %len_.i, align 8
  store ptr %call, ptr %agg.result, align 8
  ret void
}